target datalayout = "e-m:e-p270:32:32-p271:32:32-p272:64:64-i64:64-i128:128-f80:128-n8:16:32:64-S128"
target triple = "x86_64-pc-linux-gnu"

%struct.buf_mem_st = type { i64, ptr, i64, i64 }

@.str.7 = private unnamed_addr constant [35 x i8] c"../openssl/test/bio_memleak_test.c\00", align 1
@.str.8 = private unnamed_addr constant [4 x i8] c"bio\00", align 1
@.str.13 = private unnamed_addr constant [31 x i8] c"BIO_puts(bio, \22Hello World\\n\22)\00", align 1
@.str.14 = private unnamed_addr constant [3 x i8] c"12\00", align 1
@.str.15 = private unnamed_addr constant [13 x i8] c"Hello World\0A\00", align 1
@.str.16 = private unnamed_addr constant [7 x i8] c"bufmem\00", align 1
@.str.17 = private unnamed_addr constant [32 x i8] c"BIO_set_close(bio, BIO_NOCLOSE)\00", align 1
@.str.18 = private unnamed_addr constant [2 x i8] c"0\00", align 1
@.str.19 = private unnamed_addr constant [13 x i8] c"bufmem->data\00", align 1
@.str.20 = private unnamed_addr constant [16 x i8] c"\22Hello World\\n\22\00", align 1

; Function Attrs: nounwind uwtable
define internal i32 @test_bio_get_mem() #0 {
  %1 = alloca i32, align 4
  %2 = alloca ptr, align 8
  %3 = alloca ptr, align 8
  call void @llvm.lifetime.start.p0(i64 4, ptr %1) #3
  store i32 0, ptr %1, align 4, !tbaa !4
  call void @llvm.lifetime.start.p0(i64 8, ptr %2) #3
  store ptr null, ptr %2, align 8, !tbaa !8
  call void @llvm.lifetime.start.p0(i64 8, ptr %3) #3
  store ptr null, ptr %3, align 8, !tbaa !17
  %4 = call ptr @BIO_s_mem()
  %5 = call ptr @BIO_new(ptr noundef %4)
  store ptr %5, ptr %2, align 8, !tbaa !8
  %6 = load ptr, ptr %2, align 8, !tbaa !8
  %7 = call i32 @test_ptr(ptr noundef @.str.7, i32 noundef 50, ptr noundef @.str.8, ptr noundef %6)
  %8 = icmp ne i32 %7, 0
  br i1 %8, label %10, label %9

9:                                                ; preds = %0
  br label %43

10:                                               ; preds = %0
  %11 = load ptr, ptr %2, align 8, !tbaa !8
  %12 = call i32 @BIO_puts(ptr noundef %11, ptr noundef @.str.15)
  %13 = call i32 @test_int_eq(ptr noundef @.str.7, i32 noundef 52, ptr noundef @.str.13, ptr noundef @.str.14, i32 noundef %12, i32 noundef 12)
  %14 = icmp ne i32 %13, 0
  br i1 %14, label %16, label %15

15:                                               ; preds = %10
  br label %43

16:                                               ; preds = %10
  %17 = load ptr, ptr %2, align 8, !tbaa !8
  %18 = call i64 @BIO_ctrl(ptr noundef %17, i32 noundef 115, i64 noundef 0, ptr noundef %3)
  %19 = load ptr, ptr %3, align 8, !tbaa !17
  %20 = call i32 @test_ptr(ptr noundef @.str.7, i32 noundef 55, ptr noundef @.str.16, ptr noundef %19)
  %21 = icmp ne i32 %20, 0
  br i1 %21, label %23, label %22

22:                                               ; preds = %16
  br label %43

23:                                               ; preds = %16
  %24 = load ptr, ptr %2, align 8, !tbaa !8
  %25 = call i64 @BIO_ctrl(ptr noundef %24, i32 noundef 9, i64 noundef 0, ptr noundef null)
  %26 = trunc i64 %25 to i32
  %27 = call i32 @test_int_gt(ptr noundef @.str.7, i32 noundef 57, ptr noundef @.str.17, ptr noundef @.str.18, i32 noundef %26, i32 noundef 0)
  %28 = icmp ne i32 %27, 0
  br i1 %28, label %30, label %29

29:                                               ; preds = %23
  br label %43

30:                                               ; preds = %23
  %31 = load ptr, ptr %2, align 8, !tbaa !8
  %32 = call i32 @BIO_free(ptr noundef %31)
  store ptr null, ptr %2, align 8, !tbaa !8
  %33 = load ptr, ptr %3, align 8, !tbaa !17
  %34 = getelementptr inbounds nuw %struct.buf_mem_st, ptr %33, i32 0, i32 1
  %35 = load ptr, ptr %34, align 8, !tbaa !15
  %36 = load ptr, ptr %3, align 8, !tbaa !17
  %37 = getelementptr inbounds nuw %struct.buf_mem_st, ptr %36, i32 0, i32 0
  %38 = load i64, ptr %37, align 8, !tbaa !11
  %39 = call i32 @test_mem_eq(ptr noundef @.str.7, i32 noundef 61, ptr noundef @.str.19, ptr noundef @.str.20, ptr noundef %35, i64 noundef %38, ptr noundef @.str.15, i64 noundef 12)
  %40 = icmp ne i32 %39, 0
  br i1 %40, label %42, label %41

41:                                               ; preds = %30
  br label %43

42:                                               ; preds = %30
  store i32 1, ptr %1, align 4, !tbaa !4
  br label %43

43:                                               ; preds = %42, %41, %29, %22, %15, %9
  %44 = load ptr, ptr %2, align 8, !tbaa !8
  %45 = call i32 @BIO_free(ptr noundef %44)
  %46 = load ptr, ptr %3, align 8, !tbaa !17
  call void @BUF_MEM_free(ptr noundef %46)
  %47 = load i32, ptr %1, align 4, !tbaa !4
  call void @llvm.lifetime.end.p0(i64 8, ptr %3) #3
  call void @llvm.lifetime.end.p0(i64 8, ptr %2) #3
  call void @llvm.lifetime.end.p0(i64 4, ptr %1) #3
  ret i32 %47
}