; Function Attrs: nounwind uwtable
define internal range(i32 0, 2) i32 @test_bio_get_mem() #0 {
  %1 = alloca ptr, align 8
  call void @llvm.lifetime.start.p0(i64 8, ptr nonnull %1) #4
  store ptr null, ptr %1, align 8, !tbaa !13
  %2 = tail call ptr @BIO_s_mem() #4
  %3 = tail call ptr @BIO_new(ptr noundef %2) #4
  %4 = tail call i32 @test_ptr(ptr noundef nonnull @.str.7, i32 noundef 50, ptr noundef nonnull @.str.8, ptr noundef %3) #4
  %.not = icmp eq i32 %4, 0
  br i1 %.not, label %23, label %5

5:                                                ; preds = %0
  %6 = tail call i32 @BIO_puts(ptr noundef %3, ptr noundef nonnull @.str.15) #4
  %7 = tail call i32 @test_int_eq(ptr noundef nonnull @.str.7, i32 noundef 52, ptr noundef nonnull @.str.13, ptr noundef nonnull @.str.14, i32 noundef %6, i32 noundef 12) #4
  %.not7 = icmp eq i32 %7, 0
  br i1 %.not7, label %23, label %8

8:                                                ; preds = %5
  %9 = call i64 @BIO_ctrl(ptr noundef %3, i32 noundef 115, i64 noundef 0, ptr noundef nonnull %1) #4
  %10 = load ptr, ptr %1, align 8, !tbaa !13
  %11 = call i32 @test_ptr(ptr noundef nonnull @.str.7, i32 noundef 55, ptr noundef nonnull @.str.16, ptr noundef %10) #4
  %.not8 = icmp eq i32 %11, 0
  br i1 %.not8, label %23, label %12

12:                                               ; preds = %8
  %13 = call i64 @BIO_ctrl(ptr noundef %3, i32 noundef 9, i64 noundef 0, ptr noundef null) #4
  %14 = trunc i64 %13 to i32
  %15 = call i32 @test_int_gt(ptr noundef nonnull @.str.7, i32 noundef 57, ptr noundef nonnull @.str.17, ptr noundef nonnull @.str.18, i32 noundef %14, i32 noundef 0) #4
  %.not9 = icmp eq i32 %15, 0
  br i1 %.not9, label %23, label %16

16:                                               ; preds = %12
  %17 = call i32 @BIO_free(ptr noundef %3) #4
  %18 = load ptr, ptr %1, align 8, !tbaa !13
  %19 = getelementptr inbounds nuw i8, ptr %18, i64 8
  %20 = load ptr, ptr %19, align 8, !tbaa !11
  %21 = load i64, ptr %18, align 8, !tbaa !4
  %22 = call i32 @test_mem_eq(ptr noundef nonnull @.str.7, i32 noundef 61, ptr noundef nonnull @.str.19, ptr noundef nonnull @.str.20, ptr noundef %20, i64 noundef %21, ptr noundef nonnull @.str.15, i64 noundef 12) #4
  %.not10 = icmp ne i32 %22, 0
  %spec.select = zext i1 %.not10 to i32
  br label %23

23:                                               ; preds = %16, %12, %8, %5, %0
  %.06 = phi i32 [ 0, %12 ], [ 0, %8 ], [ 0, %5 ], [ 0, %0 ], [ %spec.select, %16 ]
  %.0 = phi ptr [ %3, %12 ], [ %3, %8 ], [ %3, %5 ], [ %3, %0 ], [ null, %16 ]
  %24 = call i32 @BIO_free(ptr noundef %.0) #4
  %25 = load ptr, ptr %1, align 8, !tbaa !13
  call void @BUF_MEM_free(ptr noundef %25) #4
  call void @llvm.lifetime.end.p0(i64 8, ptr nonnull %1) #4
  ret i32 %.06
}